; Function Attrs: nounwind uwtable
define range(i32 -29, 1) i32 @pmix_bfrops_base_pack_int32(ptr noundef readnone captures(none) %0, ptr noundef %1, ptr noundef readonly captures(none) %2, i32 noundef %3, i16 noundef zeroext %4) local_unnamed_addr #0 {
  %6 = load i32, ptr getelementptr inbounds nuw (i8, ptr @pmix_bfrops_base_framework, i64 76), align 4, !tbaa !24
  %or.cond = icmp ult i32 %6, 64
  br i1 %or.cond, label %7, label %13

7:                                                ; preds = %5
  %8 = zext nneg i32 %6 to i64
  %9 = getelementptr inbounds nuw [0 x %struct.pmix_output_desc_t], ptr @pmix_output_info, i64 0, i64 %8, i32 2
  %10 = load i32, ptr %9, align 4, !tbaa !30
  %11 = icmp sgt i32 %10, 19
  br i1 %11, label %12, label %13

12:                                               ; preds = %7
  tail call void (i32, ptr, ...) @pmix_output(i32 noundef %6, ptr noundef nonnull @.str.6, i32 noundef %3) #8
  br label %13

13:                                               ; preds = %12, %7, %5
  %14 = sext i32 %3 to i64
  %15 = shl nsw i64 %14, 2
  %16 = tail call ptr @pmix_bfrop_buffer_extend(ptr noundef %1, i64 noundef %15) #8
  %17 = icmp eq ptr %16, null
  br i1 %17, label %29, label %.preheader

.preheader:                                       ; preds = %13
  %18 = icmp sgt i32 %3, 0
  br i1 %18, label %.lr.ph.preheader, label %._crit_edge

.lr.ph.preheader:                                 ; preds = %.preheader
  %wide.trip.count = zext nneg i32 %3 to i64
  br label %.lr.ph

.lr.ph:                                           ; preds = %.lr.ph.preheader, %.lr.ph
  %indvars.iv = phi i64 [ 0, %.lr.ph.preheader ], [ %indvars.iv.next, %.lr.ph ]
  %.021 = phi ptr [ %16, %.lr.ph.preheader ], [ %22, %.lr.ph ]
  %19 = getelementptr inbounds nuw i32, ptr %2, i64 %indvars.iv
  %20 = load i32, ptr %19, align 4, !tbaa !3
  %21 = tail call noundef i32 @llvm.bswap.i32(i32 %20)
  store i32 %21, ptr %.021, align 1
  %22 = getelementptr inbounds nuw i8, ptr %.021, i64 4
  %indvars.iv.next = add nuw nsw i64 %indvars.iv, 1
  %exitcond.not = icmp eq i64 %indvars.iv.next, %wide.trip.count
  br i1 %exitcond.not, label %._crit_edge, label %.lr.ph, !llvm.loop !43

._crit_edge:                                      ; preds = %.lr.ph, %.preheader
  %23 = getelementptr inbounds nuw i8, ptr %1, i64 136
  %24 = load ptr, ptr %23, align 8, !tbaa !39
  %25 = getelementptr inbounds nuw i8, ptr %24, i64 %15
  store ptr %25, ptr %23, align 8, !tbaa !39
  %26 = getelementptr inbounds nuw i8, ptr %1, i64 160
  %27 = load i64, ptr %26, align 8, !tbaa !40
  %28 = add i64 %27, %15
  store i64 %28, ptr %26, align 8, !tbaa !40
  br label %29

29:                                               ; preds = %13, %._crit_edge
  %.016 = phi i32 [ 0, %._crit_edge ], [ -29, %13 ]
  ret i32 %.016
}